; Function Attrs: nounwind uwtable
define nonnull ptr @l_Std_Time_instDecidableEqDuration___boxed(ptr noundef %0, ptr noundef %1) local_unnamed_addr #0 {
  %3 = getelementptr inbounds nuw i8, ptr %0, i64 8
  %4 = load ptr, ptr %3, align 8, !tbaa !4
  %5 = getelementptr inbounds nuw i8, ptr %0, i64 16
  %6 = load ptr, ptr %5, align 8, !tbaa !4
  %7 = getelementptr inbounds nuw i8, ptr %1, i64 8
  %8 = load ptr, ptr %7, align 8, !tbaa !4
  %9 = getelementptr inbounds nuw i8, ptr %1, i64 16
  %10 = load ptr, ptr %9, align 8, !tbaa !4
  %11 = ptrtoint ptr %4 to i64
  %12 = ptrtoint ptr %8 to i64
  %13 = and i64 %11, 1
  %14 = and i64 %13, %12
  %or.cond.not.i.i.i.i = icmp eq i64 %14, 0
  br i1 %or.cond.not.i.i.i.i, label %lean_int_dec_eq.exit.i.i, label %15, !prof !15

15:                                               ; preds = %2
  %16 = icmp eq ptr %4, %8
  br i1 %16, label %18, label %l_Std_Time_instDecidableEqDuration.exit

lean_int_dec_eq.exit.i.i:                         ; preds = %2
  %17 = tail call zeroext i1 @lean_int_big_eq(ptr noundef %4, ptr noundef %8) #3
  br i1 %17, label %18, label %l_Std_Time_instDecidableEqDuration.exit

18:                                               ; preds = %lean_int_dec_eq.exit.i.i, %15
  %19 = ptrtoint ptr %6 to i64
  %20 = ptrtoint ptr %10 to i64
  %21 = and i64 %19, 1
  %22 = and i64 %21, %20
  %or.cond.not.i.i11.i.i = icmp eq i64 %22, 0
  br i1 %or.cond.not.i.i11.i.i, label %.critedge.i.i13.i.i, label %23, !prof !15

23:                                               ; preds = %18
  %24 = icmp eq ptr %6, %10
  br label %lean_int_dec_eq.exit14.i.i

.critedge.i.i13.i.i:                              ; preds = %18
  %25 = tail call zeroext i1 @lean_int_big_eq(ptr noundef %6, ptr noundef %10) #3
  br label %lean_int_dec_eq.exit14.i.i

lean_int_dec_eq.exit14.i.i:                       ; preds = %.critedge.i.i13.i.i, %23
  %.0.i.i12.i.i = phi i1 [ %24, %23 ], [ %25, %.critedge.i.i13.i.i ]
  %26 = select i1 %.0.i.i12.i.i, i64 3, i64 1
  br label %l_Std_Time_instDecidableEqDuration.exit

l_Std_Time_instDecidableEqDuration.exit:          ; preds = %15, %lean_int_dec_eq.exit.i.i, %lean_int_dec_eq.exit14.i.i
  %.0.i.i = phi i64 [ %26, %lean_int_dec_eq.exit14.i.i ], [ 1, %lean_int_dec_eq.exit.i.i ], [ 1, %15 ]
  %27 = ptrtoint ptr %1 to i64
  %28 = and i64 %27, 1
  %.not = icmp eq i64 %28, 0
  br i1 %.not, label %29, label %lean_dec.exit5

29:                                               ; preds = %l_Std_Time_instDecidableEqDuration.exit
  %30 = load i32, ptr %1, align 4, !tbaa !9
  %31 = icmp sgt i32 %30, 1
  br i1 %31, label %32, label %34, !prof !14

32:                                               ; preds = %29
  %33 = add nsw i32 %30, -1
  store i32 %33, ptr %1, align 4, !tbaa !9
  br label %lean_dec.exit5

34:                                               ; preds = %29
  %.not.i = icmp eq i32 %30, 0
  br i1 %.not.i, label %lean_dec.exit5, label %35

35:                                               ; preds = %34
  tail call void @lean_dec_ref_cold(ptr noundef nonnull %1) #3
  br label %lean_dec.exit5

lean_dec.exit5:                                   ; preds = %35, %34, %32, %l_Std_Time_instDecidableEqDuration.exit
  %36 = ptrtoint ptr %0 to i64
  %37 = and i64 %36, 1
  %.not8 = icmp eq i64 %37, 0
  br i1 %.not8, label %38, label %lean_dec.exit

38:                                               ; preds = %lean_dec.exit5
  %39 = load i32, ptr %0, align 4, !tbaa !9
  %40 = icmp sgt i32 %39, 1
  br i1 %40, label %41, label %43, !prof !14

41:                                               ; preds = %38
  %42 = add nsw i32 %39, -1
  store i32 %42, ptr %0, align 4, !tbaa !9
  br label %lean_dec.exit

43:                                               ; preds = %38
  %.not.i6 = icmp eq i32 %39, 0
  br i1 %.not.i6, label %lean_dec.exit, label %44

44:                                               ; preds = %43
  tail call void @lean_dec_ref_cold(ptr noundef nonnull %0) #3
  br label %lean_dec.exit

lean_dec.exit:                                    ; preds = %44, %43, %41, %lean_dec.exit5
  %45 = inttoptr i64 %.0.i.i to ptr
  ret ptr %45
}